; Function Attrs: nounwind uwtable
define ptr @l_Array_mapMUnsafe_map___at_Lean_Compiler_LCNF_Code_mapFVarM___spec__5___rarg___lambda__1(i64 noundef %0, ptr noundef %1, ptr noundef %2, ptr noundef %3, ptr noundef %4, i64 noundef %5, ptr noundef %6) local_unnamed_addr #0 {
  %.val.i.i = load i32, ptr %1, align 4, !tbaa !8
  %8 = icmp eq i32 %.val.i.i, 1
  br i1 %8, label %lean_ensure_exclusive_array.exit.i, label %9

9:                                                ; preds = %7
  %10 = tail call ptr @lean_copy_expand_array(ptr noundef nonnull %1, i1 noundef zeroext false) #4
  br label %lean_ensure_exclusive_array.exit.i

lean_ensure_exclusive_array.exit.i:               ; preds = %9, %7
  %.0.i.i = phi ptr [ %10, %9 ], [ %1, %7 ]
  %11 = getelementptr inbounds nuw i8, ptr %.0.i.i, i64 24
  %12 = getelementptr inbounds nuw ptr, ptr %11, i64 %0
  %13 = load ptr, ptr %12, align 8, !tbaa !4
  %14 = ptrtoint ptr %13 to i64
  %15 = and i64 %14, 1
  %.not.i = icmp eq i64 %15, 0
  br i1 %.not.i, label %16, label %lean_array_uset.exit

16:                                               ; preds = %lean_ensure_exclusive_array.exit.i
  %17 = load i32, ptr %13, align 4, !tbaa !8
  %18 = icmp sgt i32 %17, 1
  br i1 %18, label %19, label %21, !prof !13

19:                                               ; preds = %16
  %20 = add nsw i32 %17, -1
  store i32 %20, ptr %13, align 4, !tbaa !8
  br label %lean_array_uset.exit

21:                                               ; preds = %16
  %.not.i.i = icmp eq i32 %17, 0
  br i1 %.not.i.i, label %lean_array_uset.exit, label %22

22:                                               ; preds = %21
  tail call void @lean_dec_ref_cold(ptr noundef nonnull %13) #4
  br label %lean_array_uset.exit

lean_array_uset.exit:                             ; preds = %lean_ensure_exclusive_array.exit.i, %19, %21, %22
  %23 = add i64 %0, 1
  store ptr %6, ptr %12, align 8, !tbaa !4
  %24 = tail call ptr @l_Array_mapMUnsafe_map___at_Lean_Compiler_LCNF_Code_mapFVarM___spec__5___rarg(ptr noundef %2, ptr noundef %3, ptr noundef %4, i64 noundef %5, i64 noundef %23, ptr noundef nonnull %.0.i.i)
  ret ptr %24
}